target datalayout = "e-m:e-p270:32:32-p271:32:32-p272:64:64-i64:64-i128:128-f80:128-n8:16:32:64-S128"
target triple = "x86_64-pc-linux-gnu"

%"class.sat::literal" = type { i32 }
%"struct.nlsat::interval" = type { i8, %"class.sat::literal", ptr, %"class.algebraic_numbers::anum", %"class.algebraic_numbers::anum" }
%"class.algebraic_numbers::anum" = type { ptr }
%"class.nlsat::interval_set" = type { i32, i32, [0 x %"struct.nlsat::interval"] }

; Function Attrs: mustprogress nounwind uwtable
define hidden noundef zeroext i1 @_ZN5nlsat20interval_set_manager7is_fullEPKNS_12interval_setE(ptr noundef nonnull align 8 dereferenceable(28) %0, ptr noundef %1) #4 align 2 {
  %3 = alloca i1, align 1
  %4 = alloca ptr, align 8
  %5 = alloca ptr, align 8
  store ptr %0, ptr %4, align 8, !tbaa !28
  store ptr %1, ptr %5, align 8, !tbaa !40
  %6 = load ptr, ptr %5, align 8, !tbaa !40
  %7 = icmp eq ptr %6, null
  br i1 %7, label %8, label %9

8:                                                ; preds = %2
  store i1 false, ptr %3, align 1
  br label %15

9:                                                ; preds = %2
  %10 = load ptr, ptr %5, align 8, !tbaa !40
  %11 = getelementptr inbounds nuw %"class.nlsat::interval_set", ptr %10, i32 0, i32 1
  %12 = load i32, ptr %11, align 4
  %13 = lshr i32 %12, 31
  %14 = icmp eq i32 %13, 1
  store i1 %14, ptr %3, align 1
  br label %15

15:                                               ; preds = %9, %8
  %16 = load i1, ptr %3, align 1
  ret i1 %16
}