; Function Attrs: mustprogress nofree norecurse nosync nounwind willreturn memory(argmem: read) uwtable
define hidden noundef zeroext i1 @_ZN5nlsat20interval_set_manager7is_fullEPKNS_12interval_setE(ptr noundef nonnull readnone align 8 captures(none) dereferenceable(28) %0, ptr noundef readonly captures(address_is_null) %1) local_unnamed_addr #11 align 2 {
  %3 = icmp eq ptr %1, null
  br i1 %3, label %8, label %4

4:                                                ; preds = %2
  %5 = getelementptr inbounds nuw i8, ptr %1, i64 4
  %6 = load i32, ptr %5, align 4
  %7 = icmp slt i32 %6, 0
  br label %8

8:                                                ; preds = %2, %4
  %.0 = phi i1 [ %7, %4 ], [ false, %2 ]
  ret i1 %.0
}